
Proyecto6_COUNTER.elf:     file format elf32-avr

Sections:
Idx Name          Size      VMA       LMA       File off  Algn
  0 .data         0000000a  00800100  000004d2  00000566  2**0
                  CONTENTS, ALLOC, LOAD, DATA
  1 .text         000004d2  00000000  00000000  00000094  2**1
                  CONTENTS, ALLOC, LOAD, READONLY, CODE
  2 .bss          00000003  0080010a  0080010a  00000570  2**0
                  ALLOC
  3 .comment      00000030  00000000  00000000  00000570  2**0
                  CONTENTS, READONLY
  4 .note.gnu.avr.deviceinfo 00000040  00000000  00000000  000005a0  2**2
                  CONTENTS, READONLY
  5 .debug_aranges 000000a8  00000000  00000000  000005e0  2**0
                  CONTENTS, READONLY, DEBUGGING
  6 .debug_info   000014ed  00000000  00000000  00000688  2**0
                  CONTENTS, READONLY, DEBUGGING
  7 .debug_abbrev 0000095f  00000000  00000000  00001b75  2**0
                  CONTENTS, READONLY, DEBUGGING
  8 .debug_line   000008d7  00000000  00000000  000024d4  2**0
                  CONTENTS, READONLY, DEBUGGING
  9 .debug_frame  00000198  00000000  00000000  00002dac  2**2
                  CONTENTS, READONLY, DEBUGGING
 10 .debug_str    00000523  00000000  00000000  00002f44  2**0
                  CONTENTS, READONLY, DEBUGGING
 11 .debug_loc    000009ac  00000000  00000000  00003467  2**0
                  CONTENTS, READONLY, DEBUGGING
 12 .debug_ranges 000000a0  00000000  00000000  00003e13  2**0
                  CONTENTS, READONLY, DEBUGGING

Disassembly of section .text:

00000000 <__vectors>:
   0:	0c 94 34 00 	jmp	0x68	; 0x68 <__ctors_end>
   4:	0c 94 51 00 	jmp	0xa2	; 0xa2 <__bad_interrupt>
   8:	0c 94 51 00 	jmp	0xa2	; 0xa2 <__bad_interrupt>
   c:	0c 94 51 00 	jmp	0xa2	; 0xa2 <__bad_interrupt>
  10:	0c 94 51 00 	jmp	0xa2	; 0xa2 <__bad_interrupt>
  14:	0c 94 51 00 	jmp	0xa2	; 0xa2 <__bad_interrupt>
  18:	0c 94 51 00 	jmp	0xa2	; 0xa2 <__bad_interrupt>
  1c:	0c 94 51 00 	jmp	0xa2	; 0xa2 <__bad_interrupt>
  20:	0c 94 51 00 	jmp	0xa2	; 0xa2 <__bad_interrupt>
  24:	0c 94 26 01 	jmp	0x24c	; 0x24c <__vector_9>
  28:	0c 94 51 00 	jmp	0xa2	; 0xa2 <__bad_interrupt>
  2c:	0c 94 51 00 	jmp	0xa2	; 0xa2 <__bad_interrupt>
  30:	0c 94 51 00 	jmp	0xa2	; 0xa2 <__bad_interrupt>
  34:	0c 94 51 00 	jmp	0xa2	; 0xa2 <__bad_interrupt>
  38:	0c 94 51 00 	jmp	0xa2	; 0xa2 <__bad_interrupt>
  3c:	0c 94 51 00 	jmp	0xa2	; 0xa2 <__bad_interrupt>
  40:	0c 94 51 00 	jmp	0xa2	; 0xa2 <__bad_interrupt>
  44:	0c 94 51 00 	jmp	0xa2	; 0xa2 <__bad_interrupt>
  48:	0c 94 51 00 	jmp	0xa2	; 0xa2 <__bad_interrupt>
  4c:	0c 94 51 00 	jmp	0xa2	; 0xa2 <__bad_interrupt>
  50:	0c 94 51 00 	jmp	0xa2	; 0xa2 <__bad_interrupt>
  54:	0c 94 51 00 	jmp	0xa2	; 0xa2 <__bad_interrupt>
  58:	0c 94 51 00 	jmp	0xa2	; 0xa2 <__bad_interrupt>
  5c:	0c 94 51 00 	jmp	0xa2	; 0xa2 <__bad_interrupt>
  60:	0c 94 51 00 	jmp	0xa2	; 0xa2 <__bad_interrupt>
  64:	0c 94 51 00 	jmp	0xa2	; 0xa2 <__bad_interrupt>

00000068 <__ctors_end>:
  68:	11 24       	eor	r1, r1
  6a:	1f be       	out	0x3f, r1	; 63
  6c:	cf ef       	ldi	r28, 0xFF	; 255
  6e:	d8 e0       	ldi	r29, 0x08	; 8
  70:	de bf       	out	0x3e, r29	; 62
  72:	cd bf       	out	0x3d, r28	; 61

00000074 <__do_copy_data>:
  74:	11 e0       	ldi	r17, 0x01	; 1
  76:	a0 e0       	ldi	r26, 0x00	; 0
  78:	b1 e0       	ldi	r27, 0x01	; 1
  7a:	e2 ed       	ldi	r30, 0xD2	; 210
  7c:	f4 e0       	ldi	r31, 0x04	; 4
  7e:	02 c0       	rjmp	.+4      	; 0x84 <__do_copy_data+0x10>
  80:	05 90       	lpm	r0, Z+
  82:	0d 92       	st	X+, r0
  84:	aa 30       	cpi	r26, 0x0A	; 10
  86:	b1 07       	cpc	r27, r17
  88:	d9 f7       	brne	.-10     	; 0x80 <__do_copy_data+0xc>

0000008a <__do_clear_bss>:
  8a:	21 e0       	ldi	r18, 0x01	; 1
  8c:	aa e0       	ldi	r26, 0x0A	; 10
  8e:	b1 e0       	ldi	r27, 0x01	; 1
  90:	01 c0       	rjmp	.+2      	; 0x94 <.do_clear_bss_start>

00000092 <.do_clear_bss_loop>:
  92:	1d 92       	st	X+, r1

00000094 <.do_clear_bss_start>:
  94:	ad 30       	cpi	r26, 0x0D	; 13
  96:	b2 07       	cpc	r27, r18
  98:	e1 f7       	brne	.-8      	; 0x92 <.do_clear_bss_loop>
  9a:	0e 94 fa 00 	call	0x1f4	; 0x1f4 <main>
  9e:	0c 94 67 02 	jmp	0x4ce	; 0x4ce <_exit>

000000a2 <__bad_interrupt>:
  a2:	0c 94 00 00 	jmp	0	; 0x0 <__vectors>

000000a6 <toggle_e>:

    while ( (c = pgm_read_byte(progmem_s++)) )
    {
        lcd_putc(c);
    }
}/* lcd_puts_p */
  a6:	29 9a       	sbi	0x05, 1	; 5
  a8:	85 e0       	ldi	r24, 0x05	; 5
  aa:	8a 95       	dec	r24
  ac:	f1 f7       	brne	.-4      	; 0xaa <toggle_e+0x4>
  ae:	00 00       	nop
  b0:	29 98       	cbi	0x05, 1	; 5
  b2:	08 95       	ret

000000b4 <lcd_write>:
  b4:	cf 93       	push	r28
  b6:	c8 2f       	mov	r28, r24
  b8:	66 23       	and	r22, r22
  ba:	11 f0       	breq	.+4      	; 0xc0 <lcd_write+0xc>
  bc:	28 9a       	sbi	0x05, 0	; 5
  be:	01 c0       	rjmp	.+2      	; 0xc2 <lcd_write+0xe>
  c0:	28 98       	cbi	0x05, 0	; 5
  c2:	54 9a       	sbi	0x0a, 4	; 10
  c4:	55 9a       	sbi	0x0a, 5	; 10
  c6:	56 9a       	sbi	0x0a, 6	; 10
  c8:	57 9a       	sbi	0x0a, 7	; 10
  ca:	5f 98       	cbi	0x0b, 7	; 11
  cc:	5e 98       	cbi	0x0b, 6	; 11
  ce:	5d 98       	cbi	0x0b, 5	; 11
  d0:	5c 98       	cbi	0x0b, 4	; 11
  d2:	cc 23       	and	r28, r28
  d4:	0c f4       	brge	.+2      	; 0xd8 <lcd_write+0x24>
  d6:	5f 9a       	sbi	0x0b, 7	; 11
  d8:	c6 fd       	sbrc	r28, 6
  da:	5e 9a       	sbi	0x0b, 6	; 11
  dc:	c5 fd       	sbrc	r28, 5
  de:	5d 9a       	sbi	0x0b, 5	; 11
  e0:	c4 fd       	sbrc	r28, 4
  e2:	5c 9a       	sbi	0x0b, 4	; 11
  e4:	0e 94 53 00 	call	0xa6	; 0xa6 <toggle_e>
  e8:	5f 98       	cbi	0x0b, 7	; 11
  ea:	5e 98       	cbi	0x0b, 6	; 11
  ec:	5d 98       	cbi	0x0b, 5	; 11
  ee:	5c 98       	cbi	0x0b, 4	; 11
  f0:	c3 fd       	sbrc	r28, 3
  f2:	5f 9a       	sbi	0x0b, 7	; 11
  f4:	c2 fd       	sbrc	r28, 2
  f6:	5e 9a       	sbi	0x0b, 6	; 11
  f8:	c1 fd       	sbrc	r28, 1
  fa:	5d 9a       	sbi	0x0b, 5	; 11
  fc:	c0 fd       	sbrc	r28, 0
  fe:	5c 9a       	sbi	0x0b, 4	; 11
 100:	0e 94 53 00 	call	0xa6	; 0xa6 <toggle_e>
 104:	5c 9a       	sbi	0x0b, 4	; 11
 106:	5d 9a       	sbi	0x0b, 5	; 11
 108:	5e 9a       	sbi	0x0b, 6	; 11
 10a:	5f 9a       	sbi	0x0b, 7	; 11
 10c:	87 eb       	ldi	r24, 0xB7	; 183
 10e:	9b e0       	ldi	r25, 0x0B	; 11
 110:	01 97       	sbiw	r24, 0x01	; 1
 112:	f1 f7       	brne	.-4      	; 0x110 <lcd_write+0x5c>
 114:	00 c0       	rjmp	.+0      	; 0x116 <lcd_write+0x62>
 116:	00 00       	nop
 118:	cf 91       	pop	r28
 11a:	08 95       	ret

0000011c <lcd_command>:
 11c:	60 e0       	ldi	r22, 0x00	; 0
 11e:	0e 94 5a 00 	call	0xb4	; 0xb4 <lcd_write>
 122:	08 95       	ret

00000124 <lcd_data>:
 124:	61 e0       	ldi	r22, 0x01	; 1
 126:	0e 94 5a 00 	call	0xb4	; 0xb4 <lcd_write>
 12a:	08 95       	ret

0000012c <lcd_gotoxy>:
 12c:	61 11       	cpse	r22, r1
 12e:	04 c0       	rjmp	.+8      	; 0x138 <lcd_gotoxy+0xc>
 130:	80 58       	subi	r24, 0x80	; 128
 132:	0e 94 8e 00 	call	0x11c	; 0x11c <lcd_command>
 136:	08 95       	ret
 138:	80 54       	subi	r24, 0x40	; 64
 13a:	0e 94 8e 00 	call	0x11c	; 0x11c <lcd_command>
 13e:	08 95       	ret

00000140 <lcd_clrscr>:
 140:	81 e0       	ldi	r24, 0x01	; 1
 142:	0e 94 8e 00 	call	0x11c	; 0x11c <lcd_command>
 146:	08 95       	ret

00000148 <lcd_putc>:
 148:	61 e0       	ldi	r22, 0x01	; 1
 14a:	0e 94 5a 00 	call	0xb4	; 0xb4 <lcd_write>
 14e:	08 95       	ret

00000150 <lcd_puts>:
 150:	cf 93       	push	r28
 152:	df 93       	push	r29
 154:	ec 01       	movw	r28, r24
 156:	21 96       	adiw	r28, 0x01	; 1
 158:	fc 01       	movw	r30, r24
 15a:	80 81       	ld	r24, Z
 15c:	88 23       	and	r24, r24
 15e:	29 f0       	breq	.+10     	; 0x16a <lcd_puts+0x1a>
 160:	0e 94 a4 00 	call	0x148	; 0x148 <lcd_putc>
 164:	89 91       	ld	r24, Y+
 166:	81 11       	cpse	r24, r1
 168:	fb cf       	rjmp	.-10     	; 0x160 <lcd_puts+0x10>
 16a:	df 91       	pop	r29
 16c:	cf 91       	pop	r28
 16e:	08 95       	ret

00000170 <lcd_init>:
*                  LCD_DISP_ON_CURSOR      display on, cursor on
*                  LCD_DISP_CURSOR_BLINK   display on, cursor on flashing
*  Returns:  none
*************************************************************************/
void lcd_init(uint8_t dispAttr)
{
 170:	cf 93       	push	r28
 172:	c8 2f       	mov	r28, r24
        DDR(LCD_E_PORT)     |= _BV(LCD_E_PIN);
    }
    else
    {
        /* configure all port bits as output (LCD data and control lines on different ports */
        DDR(LCD_RS_PORT)    |= _BV(LCD_RS_PIN);
 174:	20 9a       	sbi	0x04, 0	; 4
        DDR(LCD_RW_PORT)    |= _BV(LCD_RW_PIN);
 176:	55 9a       	sbi	0x0a, 5	; 10
        DDR(LCD_E_PORT)     |= _BV(LCD_E_PIN);
 178:	21 9a       	sbi	0x04, 1	; 4
        DDR(LCD_DATA0_PORT) |= _BV(LCD_DATA0_PIN);
 17a:	54 9a       	sbi	0x0a, 4	; 10
        DDR(LCD_DATA1_PORT) |= _BV(LCD_DATA1_PIN);
 17c:	55 9a       	sbi	0x0a, 5	; 10
        DDR(LCD_DATA2_PORT) |= _BV(LCD_DATA2_PIN);
 17e:	56 9a       	sbi	0x0a, 6	; 10
        DDR(LCD_DATA3_PORT) |= _BV(LCD_DATA3_PIN);
 180:	57 9a       	sbi	0x0a, 7	; 10
	#else
		//round up by default
		__ticks_dc = (uint32_t)(ceil(fabs(__tmp)));
	#endif

	__builtin_avr_delay_cycles(__ticks_dc);
 182:	8f ef       	ldi	r24, 0xFF	; 255
 184:	99 ef       	ldi	r25, 0xF9	; 249
 186:	01 97       	sbiw	r24, 0x01	; 1
 188:	f1 f7       	brne	.-4      	; 0x186 <lcd_init+0x16>
 18a:	00 c0       	rjmp	.+0      	; 0x18c <lcd_init+0x1c>
 18c:	00 00       	nop
    }
    delay(LCD_DELAY_BOOTUP); /* wait 16ms or more after power-on       */

    /* initial write to lcd is 8bit */
    LCD_DATA1_PORT |= _BV(LCD_DATA1_PIN); // LCD_FUNCTION>>4;
 18e:	5d 9a       	sbi	0x0b, 5	; 11
    LCD_DATA0_PORT |= _BV(LCD_DATA0_PIN); // LCD_FUNCTION_8BIT>>4;
 190:	5c 9a       	sbi	0x0b, 4	; 11
    lcd_e_toggle();
 192:	0e 94 53 00 	call	0xa6	; 0xa6 <toggle_e>
 196:	8f e1       	ldi	r24, 0x1F	; 31
 198:	9e e4       	ldi	r25, 0x4E	; 78
 19a:	01 97       	sbiw	r24, 0x01	; 1
 19c:	f1 f7       	brne	.-4      	; 0x19a <lcd_init+0x2a>
 19e:	00 c0       	rjmp	.+0      	; 0x1a0 <lcd_init+0x30>
 1a0:	00 00       	nop
    delay(LCD_DELAY_INIT); /* delay, busy flag can't be checked here */

    /* repeat last command */
    lcd_e_toggle();
 1a2:	0e 94 53 00 	call	0xa6	; 0xa6 <toggle_e>
 1a6:	8f ef       	ldi	r24, 0xFF	; 255
 1a8:	90 e0       	ldi	r25, 0x00	; 0
 1aa:	01 97       	sbiw	r24, 0x01	; 1
 1ac:	f1 f7       	brne	.-4      	; 0x1aa <lcd_init+0x3a>
 1ae:	00 c0       	rjmp	.+0      	; 0x1b0 <lcd_init+0x40>
 1b0:	00 00       	nop
    delay(LCD_DELAY_INIT_REP); /* delay, busy flag can't be checked here */

    /* repeat last command a third time */
    lcd_e_toggle();
 1b2:	0e 94 53 00 	call	0xa6	; 0xa6 <toggle_e>
 1b6:	8f ef       	ldi	r24, 0xFF	; 255
 1b8:	90 e0       	ldi	r25, 0x00	; 0
 1ba:	01 97       	sbiw	r24, 0x01	; 1
 1bc:	f1 f7       	brne	.-4      	; 0x1ba <lcd_init+0x4a>
 1be:	00 c0       	rjmp	.+0      	; 0x1c0 <lcd_init+0x50>
 1c0:	00 00       	nop
    delay(LCD_DELAY_INIT_REP); /* delay, busy flag can't be checked here */

    /* now configure for 4bit mode */
    LCD_DATA0_PORT &= ~_BV(LCD_DATA0_PIN); // LCD_FUNCTION_4BIT_1LINE>>4
 1c2:	5c 98       	cbi	0x0b, 4	; 11
    lcd_e_toggle();
 1c4:	0e 94 53 00 	call	0xa6	; 0xa6 <toggle_e>
 1c8:	8f ef       	ldi	r24, 0xFF	; 255
 1ca:	90 e0       	ldi	r25, 0x00	; 0
 1cc:	01 97       	sbiw	r24, 0x01	; 1
 1ce:	f1 f7       	brne	.-4      	; 0x1cc <lcd_init+0x5c>
 1d0:	00 c0       	rjmp	.+0      	; 0x1d2 <lcd_init+0x62>
 1d2:	00 00       	nop
    /* Display with KS0073 controller requires special commands for enabling 4 line mode */
    lcd_command(KS0073_EXTENDED_FUNCTION_REGISTER_ON);
    lcd_command(KS0073_4LINES_MODE);
    lcd_command(KS0073_EXTENDED_FUNCTION_REGISTER_OFF);
    #else
    lcd_command(LCD_FUNCTION_DEFAULT); /* function set: display lines  */
 1d4:	88 e2       	ldi	r24, 0x28	; 40
 1d6:	0e 94 8e 00 	call	0x11c	; 0x11c <lcd_command>
    #endif
    lcd_command(LCD_DISP_OFF);     /* display off                  */
 1da:	88 e0       	ldi	r24, 0x08	; 8
 1dc:	0e 94 8e 00 	call	0x11c	; 0x11c <lcd_command>
    lcd_clrscr();                  /* display clear                */
 1e0:	0e 94 a0 00 	call	0x140	; 0x140 <lcd_clrscr>
    lcd_command(LCD_MODE_DEFAULT); /* set entry mode               */
 1e4:	86 e0       	ldi	r24, 0x06	; 6
 1e6:	0e 94 8e 00 	call	0x11c	; 0x11c <lcd_command>
    lcd_command(dispAttr);         /* display/cursor control       */
 1ea:	8c 2f       	mov	r24, r28
 1ec:	0e 94 8e 00 	call	0x11c	; 0x11c <lcd_command>
}/* lcd_init */
 1f0:	cf 91       	pop	r28
 1f2:	08 95       	ret

000001f4 <main>:
 * value on LCD display when 8-bit Timer/Counter2 overflows.
 */
int main(void)
{
    // Initialize LCD display
    lcd_init(LCD_DISP_ON);
 1f4:	8c e0       	ldi	r24, 0x0C	; 12
 1f6:	0e 94 b8 00 	call	0x170	; 0x170 <lcd_init>

    // Put string(s) at LCD display
    lcd_gotoxy(COL1, 0);
 1fa:	60 e0       	ldi	r22, 0x00	; 0
 1fc:	81 e0       	ldi	r24, 0x01	; 1
 1fe:	0e 94 96 00 	call	0x12c	; 0x12c <lcd_gotoxy>
    lcd_puts("00:00.0");
 202:	81 e0       	ldi	r24, 0x01	; 1
 204:	91 e0       	ldi	r25, 0x01	; 1
 206:	0e 94 a8 00 	call	0x150	; 0x150 <lcd_puts>
	lcd_gotoxy(COL2, 0);
 20a:	60 e0       	ldi	r22, 0x00	; 0
 20c:	8b e0       	ldi	r24, 0x0B	; 11
 20e:	0e 94 96 00 	call	0x12c	; 0x12c <lcd_gotoxy>
	lcd_putc('0');
 212:	80 e3       	ldi	r24, 0x30	; 48
 214:	0e 94 a4 00 	call	0x148	; 0x148 <lcd_putc>
	lcd_gotoxy(COL1, 1);
 218:	61 e0       	ldi	r22, 0x01	; 1
 21a:	81 e0       	ldi	r24, 0x01	; 1
 21c:	0e 94 96 00 	call	0x12c	; 0x12c <lcd_gotoxy>
	lcd_putc('b');
 220:	82 e6       	ldi	r24, 0x62	; 98
 222:	0e 94 a4 00 	call	0x148	; 0x148 <lcd_putc>
	lcd_gotoxy(COL2,1);
 226:	61 e0       	ldi	r22, 0x01	; 1
 228:	8b e0       	ldi	r24, 0x0B	; 11
 22a:	0e 94 96 00 	call	0x12c	; 0x12c <lcd_gotoxy>
	lcd_putc('c');
 22e:	83 e6       	ldi	r24, 0x63	; 99
 230:	0e 94 a4 00 	call	0x148	; 0x148 <lcd_putc>

    // Configure 8-bit Timer/Counter2 for Stopwatch
    // Enable interrupt and set the overflow prescaler to 16 ms
    TIM2_overflow_16ms();
 234:	e1 eb       	ldi	r30, 0xB1	; 177
 236:	f0 e0       	ldi	r31, 0x00	; 0
 238:	80 81       	ld	r24, Z
 23a:	87 60       	ori	r24, 0x07	; 7
 23c:	80 83       	st	Z, r24
    TIM2_overflow_interrupt_enable();
 23e:	e0 e7       	ldi	r30, 0x70	; 112
 240:	f0 e0       	ldi	r31, 0x00	; 0
 242:	80 81       	ld	r24, Z
 244:	81 60       	ori	r24, 0x01	; 1
 246:	80 83       	st	Z, r24

    // Enables interrupts by setting the global interrupt mask
    sei();
 248:	78 94       	sei
 24a:	ff cf       	rjmp	.-2      	; 0x24a <main+0x56>

0000024c <__vector_9>:
 * ISR starts when Timer/Counter2 overflows. Update the stopwatch on
 * LCD display every sixth overflow, ie approximately every 100 ms
 * (6 x 16 ms = 100 ms).
 */
ISR(TIMER2_OVF_vect)
{
 24c:	1f 92       	push	r1
 24e:	0f 92       	push	r0
 250:	0f b6       	in	r0, 0x3f	; 63
 252:	0f 92       	push	r0
 254:	11 24       	eor	r1, r1
 256:	2f 93       	push	r18
 258:	3f 93       	push	r19
 25a:	4f 93       	push	r20
 25c:	5f 93       	push	r21
 25e:	6f 93       	push	r22
 260:	7f 93       	push	r23
 262:	8f 93       	push	r24
 264:	9f 93       	push	r25
 266:	af 93       	push	r26
 268:	bf 93       	push	r27
 26a:	ef 93       	push	r30
 26c:	ff 93       	push	r31
 26e:	cf 93       	push	r28
 270:	df 93       	push	r29
 272:	00 d0       	rcall	.+0      	; 0x274 <__vector_9+0x28>
 274:	00 d0       	rcall	.+0      	; 0x276 <__vector_9+0x2a>
 276:	cd b7       	in	r28, 0x3d	; 61
 278:	de b7       	in	r29, 0x3e	; 62
	static uint8_t number_of_overflows = 0;
	static uint8_t tens = 1;		// Tenths of a second
	static uint8_t secs = 0;        // Seconds
	static uint8_t mins = 0;        // Minutes
	
	char lcd_string[2] = " ";
 27a:	80 e2       	ldi	r24, 0x20	; 32
 27c:	90 e0       	ldi	r25, 0x00	; 0
 27e:	9a 83       	std	Y+2, r25	; 0x02
 280:	89 83       	std	Y+1, r24	; 0x01
	char lcd_sqr[2] = " ";
 282:	9c 83       	std	Y+4, r25	; 0x04
 284:	8b 83       	std	Y+3, r24	; 0x03

	number_of_overflows++;
 286:	80 91 0c 01 	lds	r24, 0x010C	; 0x80010c <number_of_overflows.1946>
 28a:	8f 5f       	subi	r24, 0xFF	; 255
	
	if (number_of_overflows >= 6)
 28c:	86 30       	cpi	r24, 0x06	; 6
 28e:	18 f4       	brcc	.+6      	; 0x296 <__vector_9+0x4a>
	static uint8_t mins = 0;        // Minutes
	
	char lcd_string[2] = " ";
	char lcd_sqr[2] = " ";

	number_of_overflows++;
 290:	80 93 0c 01 	sts	0x010C, r24	; 0x80010c <number_of_overflows.1946>
 294:	d0 c0       	rjmp	.+416    	; 0x436 <__LOCK_REGION_LENGTH__+0x36>
	
	if (number_of_overflows >= 6)
	{
		// Do this every 6 x 16 ms = 100 ms
		number_of_overflows = 0;		
 296:	10 92 0c 01 	sts	0x010C, r1	; 0x80010c <number_of_overflows.1946>
		
		if(tens >= 10){
 29a:	80 91 00 01 	lds	r24, 0x0100	; 0x800100 <__data_start>
 29e:	8a 30       	cpi	r24, 0x0A	; 10
 2a0:	08 f4       	brcc	.+2      	; 0x2a4 <__vector_9+0x58>
 2a2:	b3 c0       	rjmp	.+358    	; 0x40a <__LOCK_REGION_LENGTH__+0xa>
			
			tens = 0;
 2a4:	10 92 00 01 	sts	0x0100, r1	; 0x800100 <__data_start>
			
			secs++;
 2a8:	80 91 0b 01 	lds	r24, 0x010B	; 0x80010b <secs.1948>
 2ac:	8f 5f       	subi	r24, 0xFF	; 255
 2ae:	80 93 0b 01 	sts	0x010B, r24	; 0x80010b <secs.1948>
    } else if (__radix < 2 || __radix > 36) {
	*__s = 0;
	return __s;
    } else {
	extern char *__itoa_ncheck (int, char *, unsigned char);
	return __itoa_ncheck (__val, __s, __radix);
 2b2:	4a e0       	ldi	r20, 0x0A	; 10
 2b4:	be 01       	movw	r22, r28
 2b6:	6d 5f       	subi	r22, 0xFD	; 253
 2b8:	7f 4f       	sbci	r23, 0xFF	; 255
 2ba:	88 9f       	mul	r24, r24
 2bc:	c0 01       	movw	r24, r0
 2be:	11 24       	eor	r1, r1
 2c0:	0e 94 32 02 	call	0x464	; 0x464 <__itoa_ncheck>
			
			/*SQUARE OF SECONDS*/
			itoa(secs*secs, lcd_sqr, 10);     // Convert decimal value to string
			lcd_gotoxy(COL2, 0);
 2c4:	60 e0       	ldi	r22, 0x00	; 0
 2c6:	8b e0       	ldi	r24, 0x0B	; 11
 2c8:	0e 94 96 00 	call	0x12c	; 0x12c <lcd_gotoxy>
			lcd_puts(lcd_sqr);
 2cc:	ce 01       	movw	r24, r28
 2ce:	03 96       	adiw	r24, 0x03	; 3
 2d0:	0e 94 a8 00 	call	0x150	; 0x150 <lcd_puts>
			
			/*SECONDS*/
			if (secs >= 10){
 2d4:	80 91 0b 01 	lds	r24, 0x010B	; 0x80010b <secs.1948>
 2d8:	8a 30       	cpi	r24, 0x0A	; 10
 2da:	80 f0       	brcs	.+32     	; 0x2fc <__vector_9+0xb0>
 2dc:	4a e0       	ldi	r20, 0x0A	; 10
 2de:	be 01       	movw	r22, r28
 2e0:	6f 5f       	subi	r22, 0xFF	; 255
 2e2:	7f 4f       	sbci	r23, 0xFF	; 255
 2e4:	90 e0       	ldi	r25, 0x00	; 0
 2e6:	0e 94 32 02 	call	0x464	; 0x464 <__itoa_ncheck>
				itoa(secs, lcd_string, 10);     // Convert decimal value to string
				lcd_gotoxy(4, 0);
 2ea:	60 e0       	ldi	r22, 0x00	; 0
 2ec:	84 e0       	ldi	r24, 0x04	; 4
 2ee:	0e 94 96 00 	call	0x12c	; 0x12c <lcd_gotoxy>
				lcd_puts(lcd_string);
 2f2:	ce 01       	movw	r24, r28
 2f4:	01 96       	adiw	r24, 0x01	; 1
 2f6:	0e 94 a8 00 	call	0x150	; 0x150 <lcd_puts>
 2fa:	0f c0       	rjmp	.+30     	; 0x31a <__vector_9+0xce>
 2fc:	4a e0       	ldi	r20, 0x0A	; 10
 2fe:	be 01       	movw	r22, r28
 300:	6f 5f       	subi	r22, 0xFF	; 255
 302:	7f 4f       	sbci	r23, 0xFF	; 255
 304:	90 e0       	ldi	r25, 0x00	; 0
 306:	0e 94 32 02 	call	0x464	; 0x464 <__itoa_ncheck>
				
			}else{
				itoa(secs, lcd_string, 10);     // Convert decimal value to string
				lcd_gotoxy(5, 0);
 30a:	60 e0       	ldi	r22, 0x00	; 0
 30c:	85 e0       	ldi	r24, 0x05	; 5
 30e:	0e 94 96 00 	call	0x12c	; 0x12c <lcd_gotoxy>
				lcd_puts(lcd_string);
 312:	ce 01       	movw	r24, r28
 314:	01 96       	adiw	r24, 0x01	; 1
 316:	0e 94 a8 00 	call	0x150	; 0x150 <lcd_puts>
				
			}
			
			/*MINUTES*/
			if (secs >= 60){
 31a:	80 91 0b 01 	lds	r24, 0x010B	; 0x80010b <secs.1948>
 31e:	8c 33       	cpi	r24, 0x3C	; 60
 320:	08 f4       	brcc	.+2      	; 0x324 <__vector_9+0xd8>
 322:	73 c0       	rjmp	.+230    	; 0x40a <__LOCK_REGION_LENGTH__+0xa>
				secs = 0;
 324:	10 92 0b 01 	sts	0x010B, r1	; 0x80010b <secs.1948>
 328:	4a e0       	ldi	r20, 0x0A	; 10
 32a:	be 01       	movw	r22, r28
 32c:	6f 5f       	subi	r22, 0xFF	; 255
 32e:	7f 4f       	sbci	r23, 0xFF	; 255
 330:	80 e0       	ldi	r24, 0x00	; 0
 332:	90 e0       	ldi	r25, 0x00	; 0
 334:	0e 94 32 02 	call	0x464	; 0x464 <__itoa_ncheck>
				
				itoa(secs, lcd_string, 10);     // Convert decimal value to string
				lcd_gotoxy(4, 0);
 338:	60 e0       	ldi	r22, 0x00	; 0
 33a:	84 e0       	ldi	r24, 0x04	; 4
 33c:	0e 94 96 00 	call	0x12c	; 0x12c <lcd_gotoxy>
				lcd_puts(lcd_string);
 340:	ce 01       	movw	r24, r28
 342:	01 96       	adiw	r24, 0x01	; 1
 344:	0e 94 a8 00 	call	0x150	; 0x150 <lcd_puts>
				
				itoa(secs*secs, lcd_sqr, 10);     // Convert decimal value to string
 348:	80 91 0b 01 	lds	r24, 0x010B	; 0x80010b <secs.1948>
 34c:	4a e0       	ldi	r20, 0x0A	; 10
 34e:	be 01       	movw	r22, r28
 350:	6d 5f       	subi	r22, 0xFD	; 253
 352:	7f 4f       	sbci	r23, 0xFF	; 255
 354:	88 9f       	mul	r24, r24
 356:	c0 01       	movw	r24, r0
 358:	11 24       	eor	r1, r1
 35a:	0e 94 32 02 	call	0x464	; 0x464 <__itoa_ncheck>
				lcd_gotoxy(COL2, 0);
 35e:	60 e0       	ldi	r22, 0x00	; 0
 360:	8b e0       	ldi	r24, 0x0B	; 11
 362:	0e 94 96 00 	call	0x12c	; 0x12c <lcd_gotoxy>
				lcd_puts(lcd_sqr);
 366:	ce 01       	movw	r24, r28
 368:	03 96       	adiw	r24, 0x03	; 3
 36a:	0e 94 a8 00 	call	0x150	; 0x150 <lcd_puts>
				
				lcd_gotoxy(12, 0);
 36e:	60 e0       	ldi	r22, 0x00	; 0
 370:	8c e0       	ldi	r24, 0x0C	; 12
 372:	0e 94 96 00 	call	0x12c	; 0x12c <lcd_gotoxy>
				lcd_data(0x20);
 376:	80 e2       	ldi	r24, 0x20	; 32
 378:	0e 94 92 00 	call	0x124	; 0x124 <lcd_data>
				lcd_gotoxy(13, 0);
 37c:	60 e0       	ldi	r22, 0x00	; 0
 37e:	8d e0       	ldi	r24, 0x0D	; 13
 380:	0e 94 96 00 	call	0x12c	; 0x12c <lcd_gotoxy>
				lcd_data(0x20);
 384:	80 e2       	ldi	r24, 0x20	; 32
 386:	0e 94 92 00 	call	0x124	; 0x124 <lcd_data>
				lcd_gotoxy(14, 0);
 38a:	60 e0       	ldi	r22, 0x00	; 0
 38c:	8e e0       	ldi	r24, 0x0E	; 14
 38e:	0e 94 96 00 	call	0x12c	; 0x12c <lcd_gotoxy>
				lcd_data(0x20);
 392:	80 e2       	ldi	r24, 0x20	; 32
 394:	0e 94 92 00 	call	0x124	; 0x124 <lcd_data>
				
				mins++;
 398:	80 91 0a 01 	lds	r24, 0x010A	; 0x80010a <__data_end>
 39c:	8f 5f       	subi	r24, 0xFF	; 255
 39e:	80 93 0a 01 	sts	0x010A, r24	; 0x80010a <__data_end>
				
				if (mins >= 60){
 3a2:	8c 33       	cpi	r24, 0x3C	; 60
 3a4:	88 f0       	brcs	.+34     	; 0x3c8 <__vector_9+0x17c>
					mins = 0;
 3a6:	10 92 0a 01 	sts	0x010A, r1	; 0x80010a <__data_end>
					
					lcd_gotoxy(COL1, 0);
 3aa:	60 e0       	ldi	r22, 0x00	; 0
 3ac:	81 e0       	ldi	r24, 0x01	; 1
 3ae:	0e 94 96 00 	call	0x12c	; 0x12c <lcd_gotoxy>
					lcd_putc('0');
 3b2:	80 e3       	ldi	r24, 0x30	; 48
 3b4:	0e 94 a4 00 	call	0x148	; 0x148 <lcd_putc>
					lcd_gotoxy(2, 0);
 3b8:	60 e0       	ldi	r22, 0x00	; 0
 3ba:	82 e0       	ldi	r24, 0x02	; 2
 3bc:	0e 94 96 00 	call	0x12c	; 0x12c <lcd_gotoxy>
					lcd_putc('0');
 3c0:	80 e3       	ldi	r24, 0x30	; 48
 3c2:	0e 94 a4 00 	call	0x148	; 0x148 <lcd_putc>
 3c6:	21 c0       	rjmp	.+66     	; 0x40a <__LOCK_REGION_LENGTH__+0xa>
					
				}else if (mins >= 10){
 3c8:	8a 30       	cpi	r24, 0x0A	; 10
 3ca:	80 f0       	brcs	.+32     	; 0x3ec <__vector_9+0x1a0>
 3cc:	4a e0       	ldi	r20, 0x0A	; 10
 3ce:	be 01       	movw	r22, r28
 3d0:	6f 5f       	subi	r22, 0xFF	; 255
 3d2:	7f 4f       	sbci	r23, 0xFF	; 255
 3d4:	90 e0       	ldi	r25, 0x00	; 0
 3d6:	0e 94 32 02 	call	0x464	; 0x464 <__itoa_ncheck>
					itoa(mins, lcd_string, 10);     // Convert decimal value to string
					lcd_gotoxy(COL1, 0);
 3da:	60 e0       	ldi	r22, 0x00	; 0
 3dc:	81 e0       	ldi	r24, 0x01	; 1
 3de:	0e 94 96 00 	call	0x12c	; 0x12c <lcd_gotoxy>
					lcd_puts(lcd_string);
 3e2:	ce 01       	movw	r24, r28
 3e4:	01 96       	adiw	r24, 0x01	; 1
 3e6:	0e 94 a8 00 	call	0x150	; 0x150 <lcd_puts>
 3ea:	0f c0       	rjmp	.+30     	; 0x40a <__LOCK_REGION_LENGTH__+0xa>
 3ec:	4a e0       	ldi	r20, 0x0A	; 10
 3ee:	be 01       	movw	r22, r28
 3f0:	6f 5f       	subi	r22, 0xFF	; 255
 3f2:	7f 4f       	sbci	r23, 0xFF	; 255
 3f4:	90 e0       	ldi	r25, 0x00	; 0
 3f6:	0e 94 32 02 	call	0x464	; 0x464 <__itoa_ncheck>
				}else {
					itoa(mins, lcd_string, 10);     // Convert decimal value to string
					lcd_gotoxy(2, 0);
 3fa:	60 e0       	ldi	r22, 0x00	; 0
 3fc:	82 e0       	ldi	r24, 0x02	; 2
 3fe:	0e 94 96 00 	call	0x12c	; 0x12c <lcd_gotoxy>
					lcd_puts(lcd_string);
 402:	ce 01       	movw	r24, r28
 404:	01 96       	adiw	r24, 0x01	; 1
 406:	0e 94 a8 00 	call	0x150	; 0x150 <lcd_puts>
 40a:	80 91 00 01 	lds	r24, 0x0100	; 0x800100 <__data_start>
 40e:	4a e0       	ldi	r20, 0x0A	; 10
 410:	be 01       	movw	r22, r28
 412:	6f 5f       	subi	r22, 0xFF	; 255
 414:	7f 4f       	sbci	r23, 0xFF	; 255
 416:	90 e0       	ldi	r25, 0x00	; 0
 418:	0e 94 32 02 	call	0x464	; 0x464 <__itoa_ncheck>
			
		}
		
		/*TENTHS*/
		itoa(tens, lcd_string, 10);     // Convert decimal value to string
		lcd_gotoxy(7, 0);
 41c:	60 e0       	ldi	r22, 0x00	; 0
 41e:	87 e0       	ldi	r24, 0x07	; 7
 420:	0e 94 96 00 	call	0x12c	; 0x12c <lcd_gotoxy>
		lcd_puts(lcd_string);
 424:	ce 01       	movw	r24, r28
 426:	01 96       	adiw	r24, 0x01	; 1
 428:	0e 94 a8 00 	call	0x150	; 0x150 <lcd_puts>
		
		tens++;
 42c:	80 91 00 01 	lds	r24, 0x0100	; 0x800100 <__data_start>
 430:	8f 5f       	subi	r24, 0xFF	; 255
 432:	80 93 00 01 	sts	0x0100, r24	; 0x800100 <__data_start>
		
	}
 436:	0f 90       	pop	r0
 438:	0f 90       	pop	r0
 43a:	0f 90       	pop	r0
 43c:	0f 90       	pop	r0
 43e:	df 91       	pop	r29
 440:	cf 91       	pop	r28
 442:	ff 91       	pop	r31
 444:	ef 91       	pop	r30
 446:	bf 91       	pop	r27
 448:	af 91       	pop	r26
 44a:	9f 91       	pop	r25
 44c:	8f 91       	pop	r24
 44e:	7f 91       	pop	r23
 450:	6f 91       	pop	r22
 452:	5f 91       	pop	r21
 454:	4f 91       	pop	r20
 456:	3f 91       	pop	r19
 458:	2f 91       	pop	r18
 45a:	0f 90       	pop	r0
 45c:	0f be       	out	0x3f, r0	; 63
 45e:	0f 90       	pop	r0
 460:	1f 90       	pop	r1
 462:	18 95       	reti

00000464 <__itoa_ncheck>:
 464:	bb 27       	eor	r27, r27
 466:	4a 30       	cpi	r20, 0x0A	; 10
 468:	31 f4       	brne	.+12     	; 0x476 <__itoa_ncheck+0x12>
 46a:	99 23       	and	r25, r25
 46c:	22 f4       	brpl	.+8      	; 0x476 <__itoa_ncheck+0x12>
 46e:	bd e2       	ldi	r27, 0x2D	; 45
 470:	90 95       	com	r25
 472:	81 95       	neg	r24
 474:	9f 4f       	sbci	r25, 0xFF	; 255
 476:	0c 94 3e 02 	jmp	0x47c	; 0x47c <__utoa_common>

0000047a <__utoa_ncheck>:
 47a:	bb 27       	eor	r27, r27

0000047c <__utoa_common>:
 47c:	fb 01       	movw	r30, r22
 47e:	55 27       	eor	r21, r21
 480:	aa 27       	eor	r26, r26
 482:	88 0f       	add	r24, r24
 484:	99 1f       	adc	r25, r25
 486:	aa 1f       	adc	r26, r26
 488:	a4 17       	cp	r26, r20
 48a:	10 f0       	brcs	.+4      	; 0x490 <__utoa_common+0x14>
 48c:	a4 1b       	sub	r26, r20
 48e:	83 95       	inc	r24
 490:	50 51       	subi	r21, 0x10	; 16
 492:	b9 f7       	brne	.-18     	; 0x482 <__utoa_common+0x6>
 494:	a0 5d       	subi	r26, 0xD0	; 208
 496:	aa 33       	cpi	r26, 0x3A	; 58
 498:	08 f0       	brcs	.+2      	; 0x49c <__utoa_common+0x20>
 49a:	a9 5d       	subi	r26, 0xD9	; 217
 49c:	a1 93       	st	Z+, r26
 49e:	00 97       	sbiw	r24, 0x00	; 0
 4a0:	79 f7       	brne	.-34     	; 0x480 <__utoa_common+0x4>
 4a2:	b1 11       	cpse	r27, r1
 4a4:	b1 93       	st	Z+, r27
 4a6:	11 92       	st	Z+, r1
 4a8:	cb 01       	movw	r24, r22
 4aa:	0c 94 57 02 	jmp	0x4ae	; 0x4ae <strrev>

000004ae <strrev>:
 4ae:	dc 01       	movw	r26, r24
 4b0:	fc 01       	movw	r30, r24
 4b2:	67 2f       	mov	r22, r23
 4b4:	71 91       	ld	r23, Z+
 4b6:	77 23       	and	r23, r23
 4b8:	e1 f7       	brne	.-8      	; 0x4b2 <strrev+0x4>
 4ba:	32 97       	sbiw	r30, 0x02	; 2
 4bc:	04 c0       	rjmp	.+8      	; 0x4c6 <strrev+0x18>
 4be:	7c 91       	ld	r23, X
 4c0:	6d 93       	st	X+, r22
 4c2:	70 83       	st	Z, r23
 4c4:	62 91       	ld	r22, -Z
 4c6:	ae 17       	cp	r26, r30
 4c8:	bf 07       	cpc	r27, r31
 4ca:	c8 f3       	brcs	.-14     	; 0x4be <strrev+0x10>
 4cc:	08 95       	ret

000004ce <_exit>:
 4ce:	f8 94       	cli

000004d0 <__stop_program>:
 4d0:	ff cf       	rjmp	.-2      	; 0x4d0 <__stop_program>
